target datalayout = "e-m:e-p270:32:32-p271:32:32-p272:64:64-i64:64-f80:128-n8:16:32:64-S128"
target triple = "x86_64-pc-linux-gnu"

@.str = private unnamed_addr constant [4 x i8] c"%d\0A\00", align 1
@.str.1 = private unnamed_addr constant [3 x i8] c"NO\00", align 1
@.str.2 = private unnamed_addr constant [4 x i8] c"%s\0A\00", align 1

; Function Attrs: noinline nounwind uwtable
define dso_local i32 @compare(i8* %0, i8* %1, i32 %2) #0 {
  %4 = alloca i32, align 4
  %5 = alloca i8*, align 8
  %6 = alloca i8*, align 8
  %7 = alloca i32, align 4
  %8 = alloca i32, align 4
  %9 = alloca i32, align 4
  store i8* %0, i8** %5, align 8
  store i8* %1, i8** %6, align 8
  store i32 %2, i32* %7, align 4
  %10 = load i8*, i8** %5, align 8
  %11 = call i64 @strlen(i8* %10) #5
  %12 = trunc i64 %11 to i32
  store i32 %12, i32* %9, align 4
  store i32 0, i32* %8, align 4
  br label %13

13:                                               ; preds = %35, %3
  %14 = load i32, i32* %8, align 4
  %15 = load i32, i32* %9, align 4
  %16 = icmp slt i32 %14, %15
  br i1 %16, label %17, label %38

17:                                               ; preds = %13
  %18 = load i8*, i8** %5, align 8
  %19 = load i32, i32* %8, align 4
  %20 = sext i32 %19 to i64
  %21 = getelementptr inbounds i8, i8* %18, i64 %20
  %22 = load i8, i8* %21, align 1
  %23 = sext i8 %22 to i32
  %24 = load i8*, i8** %6, align 8
  %25 = load i32, i32* %8, align 4
  %26 = load i32, i32* %7, align 4
  %27 = add nsw i32 %25, %26
  %28 = sext i32 %27 to i64
  %29 = getelementptr inbounds i8, i8* %24, i64 %28
  %30 = load i8, i8* %29, align 1
  %31 = sext i8 %30 to i32
  %32 = icmp eq i32 %23, %31
  br i1 %32, label %33, label %34

33:                                               ; preds = %17
  br label %35

34:                                               ; preds = %17
  store i32 1, i32* %4, align 4
  br label %39

35:                                               ; preds = %33
  %36 = load i32, i32* %8, align 4
  %37 = add nsw i32 %36, 1
  store i32 %37, i32* %8, align 4
  br label %13

38:                                               ; preds = %13
  store i32 0, i32* %4, align 4
  br label %39

39:                                               ; preds = %38, %34
  %40 = load i32, i32* %4, align 4
  ret i32 %40
}

; Function Attrs: noinline nounwind uwtable
define dso_local void @main() #0 {
  %1 = alloca i32, align 4
  %2 = alloca i32, align 4
  %3 = alloca i32, align 4
  %4 = alloca i32, align 4
  %5 = alloca i32, align 4
  %6 = alloca i32, align 4
  %7 = alloca i32, align 4
  %8 = alloca [501 x i8], align 16
  %9 = alloca [6 x i8], align 1
  %10 = alloca [100 x [6 x i8]], align 16
  store i32 0, i32* %7, align 4
  %11 = bitcast [501 x i8]* %8 to i8*
  call void @llvm.memset.p0i8.i64(i8* align 16 %11, i8 0, i64 501, i1 false)
  %12 = bitcast [6 x i8]* %9 to i8*
  call void @llvm.memset.p0i8.i64(i8* align 1 %12, i8 0, i64 6, i1 false)
  %13 = bitcast [100 x [6 x i8]]* %10 to i8*
  call void @llvm.memset.p0i8.i64(i8* align 16 %13, i8 0, i64 600, i1 false)
  %14 = call i32 (i8*, ...) @__isoc99_scanf(i8* getelementptr inbounds ([4 x i8], [4 x i8]* @.str, i64 0, i64 0), i32* %5)
  %15 = getelementptr inbounds [501 x i8], [501 x i8]* %8, i64 0, i64 0
  %16 = call i32 (i8*, ...) bitcast (i32 (...)* @gets to i32 (i8*, ...)*)(i8* %15)
  %17 = getelementptr inbounds [501 x i8], [501 x i8]* %8, i64 0, i64 0
  %18 = call i64 @strlen(i8* %17) #5
  %19 = trunc i64 %18 to i32
  store i32 %19, i32* %3, align 4
  store i32 0, i32* %1, align 4
  br label %20

20:                                               ; preds = %74, %0
  %21 = load i32, i32* %1, align 4
  %22 = load i32, i32* %3, align 4
  %23 = load i32, i32* %5, align 4
  %24 = sub nsw i32 %22, %23
  %25 = icmp sle i32 %21, %24
  br i1 %25, label %26, label %77

26:                                               ; preds = %20
  store i32 0, i32* %6, align 4
  store i32 0, i32* %2, align 4
  br label %27

27:                                               ; preds = %41, %26
  %28 = load i32, i32* %2, align 4
  %29 = load i32, i32* %5, align 4
  %30 = icmp slt i32 %28, %29
  br i1 %30, label %31, label %44

31:                                               ; preds = %27
  %32 = load i32, i32* %1, align 4
  %33 = load i32, i32* %2, align 4
  %34 = add nsw i32 %32, %33
  %35 = sext i32 %34 to i64
  %36 = getelementptr inbounds [501 x i8], [501 x i8]* %8, i64 0, i64 %35
  %37 = load i8, i8* %36, align 1
  %38 = load i32, i32* %2, align 4
  %39 = sext i32 %38 to i64
  %40 = getelementptr inbounds [6 x i8], [6 x i8]* %9, i64 0, i64 %39
  store i8 %37, i8* %40, align 1
  br label %41

41:                                               ; preds = %31
  %42 = load i32, i32* %2, align 4
  %43 = add nsw i32 %42, 1
  store i32 %43, i32* %2, align 4
  br label %27

44:                                               ; preds = %27
  %45 = load i32, i32* %5, align 4
  %46 = sext i32 %45 to i64
  %47 = getelementptr inbounds [6 x i8], [6 x i8]* %9, i64 0, i64 %46
  store i8 0, i8* %47, align 1
  store i32 0, i32* %2, align 4
  br label %48

48:                                               ; preds = %64, %44
  %49 = load i32, i32* %2, align 4
  %50 = load i32, i32* %3, align 4
  %51 = load i32, i32* %5, align 4
  %52 = sub nsw i32 %50, %51
  %53 = icmp sle i32 %49, %52
  br i1 %53, label %54, label %67

54:                                               ; preds = %48
  %55 = getelementptr inbounds [6 x i8], [6 x i8]* %9, i64 0, i64 0
  %56 = getelementptr inbounds [501 x i8], [501 x i8]* %8, i64 0, i64 0
  %57 = load i32, i32* %2, align 4
  %58 = call i32 @compare(i8* %55, i8* %56, i32 %57)
  %59 = icmp eq i32 %58, 0
  br i1 %59, label %60, label %63

60:                                               ; preds = %54
  %61 = load i32, i32* %6, align 4
  %62 = add nsw i32 %61, 1
  store i32 %62, i32* %6, align 4
  br label %63

63:                                               ; preds = %60, %54
  br label %64

64:                                               ; preds = %63
  %65 = load i32, i32* %2, align 4
  %66 = add nsw i32 %65, 1
  store i32 %66, i32* %2, align 4
  br label %48

67:                                               ; preds = %48
  %68 = load i32, i32* %6, align 4
  %69 = load i32, i32* %7, align 4
  %70 = icmp sgt i32 %68, %69
  br i1 %70, label %71, label %73

71:                                               ; preds = %67
  %72 = load i32, i32* %6, align 4
  store i32 %72, i32* %7, align 4
  br label %73

73:                                               ; preds = %71, %67
  br label %74

74:                                               ; preds = %73
  %75 = load i32, i32* %1, align 4
  %76 = add nsw i32 %75, 1
  store i32 %76, i32* %1, align 4
  br label %20

77:                                               ; preds = %20
  store i32 0, i32* %4, align 4
  store i32 0, i32* %1, align 4
  br label %78

78:                                               ; preds = %140, %77
  %79 = load i32, i32* %1, align 4
  %80 = load i32, i32* %3, align 4
  %81 = load i32, i32* %5, align 4
  %82 = sub nsw i32 %80, %81
  %83 = icmp sle i32 %79, %82
  br i1 %83, label %84, label %143

84:                                               ; preds = %78
  store i32 0, i32* %6, align 4
  store i32 0, i32* %2, align 4
  br label %85

85:                                               ; preds = %99, %84
  %86 = load i32, i32* %2, align 4
  %87 = load i32, i32* %5, align 4
  %88 = icmp slt i32 %86, %87
  br i1 %88, label %89, label %102

89:                                               ; preds = %85
  %90 = load i32, i32* %1, align 4
  %91 = load i32, i32* %2, align 4
  %92 = add nsw i32 %90, %91
  %93 = sext i32 %92 to i64
  %94 = getelementptr inbounds [501 x i8], [501 x i8]* %8, i64 0, i64 %93
  %95 = load i8, i8* %94, align 1
  %96 = load i32, i32* %2, align 4
  %97 = sext i32 %96 to i64
  %98 = getelementptr inbounds [6 x i8], [6 x i8]* %9, i64 0, i64 %97
  store i8 %95, i8* %98, align 1
  br label %99

99:                                               ; preds = %89
  %100 = load i32, i32* %2, align 4
  %101 = add nsw i32 %100, 1
  store i32 %101, i32* %2, align 4
  br label %85

102:                                              ; preds = %85
  %103 = load i32, i32* %5, align 4
  %104 = sext i32 %103 to i64
  %105 = getelementptr inbounds [6 x i8], [6 x i8]* %9, i64 0, i64 %104
  store i8 0, i8* %105, align 1
  %106 = load i32, i32* %1, align 4
  store i32 %106, i32* %2, align 4
  br label %107

107:                                              ; preds = %123, %102
  %108 = load i32, i32* %2, align 4
  %109 = load i32, i32* %3, align 4
  %110 = load i32, i32* %5, align 4
  %111 = sub nsw i32 %109, %110
  %112 = icmp sle i32 %108, %111
  br i1 %112, label %113, label %126

113:                                              ; preds = %107
  %114 = getelementptr inbounds [6 x i8], [6 x i8]* %9, i64 0, i64 0
  %115 = getelementptr inbounds [501 x i8], [501 x i8]* %8, i64 0, i64 0
  %116 = load i32, i32* %2, align 4
  %117 = call i32 @compare(i8* %114, i8* %115, i32 %116)
  %118 = icmp eq i32 %117, 0
  br i1 %118, label %119, label %122

119:                                              ; preds = %113
  %120 = load i32, i32* %6, align 4
  %121 = add nsw i32 %120, 1
  store i32 %121, i32* %6, align 4
  br label %122

122:                                              ; preds = %119, %113
  br label %123

123:                                              ; preds = %122
  %124 = load i32, i32* %2, align 4
  %125 = add nsw i32 %124, 1
  store i32 %125, i32* %2, align 4
  br label %107

126:                                              ; preds = %107
  %127 = load i32, i32* %6, align 4
  %128 = load i32, i32* %7, align 4
  %129 = icmp eq i32 %127, %128
  br i1 %129, label %130, label %139

130:                                              ; preds = %126
  %131 = load i32, i32* %4, align 4
  %132 = sext i32 %131 to i64
  %133 = getelementptr inbounds [100 x [6 x i8]], [100 x [6 x i8]]* %10, i64 0, i64 %132
  %134 = getelementptr inbounds [6 x i8], [6 x i8]* %133, i64 0, i64 0
  %135 = getelementptr inbounds [6 x i8], [6 x i8]* %9, i64 0, i64 0
  %136 = call i8* @strcpy(i8* %134, i8* %135) #6
  %137 = load i32, i32* %4, align 4
  %138 = add nsw i32 %137, 1
  store i32 %138, i32* %4, align 4
  br label %139

139:                                              ; preds = %130, %126
  br label %140

140:                                              ; preds = %139
  %141 = load i32, i32* %1, align 4
  %142 = add nsw i32 %141, 1
  store i32 %142, i32* %1, align 4
  br label %78

143:                                              ; preds = %78
  %144 = load i32, i32* %7, align 4
  %145 = icmp eq i32 %144, 1
  br i1 %145, label %146, label %148

146:                                              ; preds = %143
  %147 = call i32 (i8*, ...) @printf(i8* getelementptr inbounds ([3 x i8], [3 x i8]* @.str.1, i64 0, i64 0))
  br label %164

148:                                              ; preds = %143
  %149 = load i32, i32* %7, align 4
  %150 = call i32 (i8*, ...) @printf(i8* getelementptr inbounds ([4 x i8], [4 x i8]* @.str, i64 0, i64 0), i32 %149)
  store i32 0, i32* %1, align 4
  br label %151

151:                                              ; preds = %161, %148
  %152 = load i32, i32* %1, align 4
  %153 = load i32, i32* %4, align 4
  %154 = icmp slt i32 %152, %153
  br i1 %154, label %155, label %164

155:                                              ; preds = %151
  %156 = load i32, i32* %1, align 4
  %157 = sext i32 %156 to i64
  %158 = getelementptr inbounds [100 x [6 x i8]], [100 x [6 x i8]]* %10, i64 0, i64 %157
  %159 = getelementptr inbounds [6 x i8], [6 x i8]* %158, i64 0, i64 0
  %160 = call i32 (i8*, ...) @printf(i8* getelementptr inbounds ([4 x i8], [4 x i8]* @.str.2, i64 0, i64 0), i8* %159)
  br label %161

161:                                              ; preds = %155
  %162 = load i32, i32* %1, align 4
  %163 = add nsw i32 %162, 1
  store i32 %163, i32* %1, align 4
  br label %151

164:                                              ; preds = %146, %151
  ret void
}